; Function Attrs: mustprogress uwtable
define internal void @_ZN12_GLOBAL__N_120DOCTEST_ANON_FUNC_52Ev() #4 personality ptr @__gxx_personality_v0 {
  %1 = alloca %"class.std::set", align 8
  %2 = alloca %"struct.(anonymous namespace)::DOCTEST_ANON_CLASS_51", align 8
  call void @_ZN11ReplFixtureC2Ev(ptr noundef nonnull align 8 dereferenceable(56) %2)
  call void @llvm.lifetime.start.p0(i64 48, ptr nonnull %1)
  %3 = load ptr, ptr %2, align 8
  %4 = invoke noundef i32 @_Z10lua_resumeP9lua_StateS0_i(ptr noundef %3, ptr noundef null, i32 noundef 0)
          to label %.noexc unwind label %20

.noexc:                                           ; preds = %0
  invoke void @_ZN11ReplFixture16getCompletionSetEPKc(ptr dead_on_unwind nonnull writable sret(%"class.std::set") align 8 %1, ptr noundef nonnull align 8 dereferenceable(56) %2, ptr noundef nonnull @.str.146)
          to label %.noexc1 unwind label %20

.noexc1:                                          ; preds = %.noexc
  %5 = getelementptr inbounds i8, ptr %1, i64 16
  %6 = load ptr, ptr %5, align 8
  invoke void @_ZNSt8_Rb_treeI10CompletionS0_St9_IdentityIS0_ESt4lessIS0_ESaIS0_EE8_M_eraseEPSt13_Rb_tree_nodeIS0_E(ptr noundef nonnull align 8 dereferenceable(48) %1, ptr noundef %6)
          to label %10 unwind label %7

7:                                                ; preds = %.noexc1
  %8 = landingpad { ptr, i32 }
          catch ptr null
  %9 = extractvalue { ptr, i32 } %8, 0
  call void @__clang_call_terminate(ptr %9) #16
  unreachable

10:                                               ; preds = %.noexc1
  call void @llvm.lifetime.end.p0(i64 48, ptr nonnull %1)
  %11 = getelementptr inbounds i8, ptr %2, i64 24
  call void @_ZNSt7__cxx1112basic_stringIcSt11char_traitsIcESaIcEED1Ev(ptr noundef nonnull align 8 dereferenceable(32) %11) #15
  %12 = getelementptr inbounds i8, ptr %2, i64 16
  %13 = load ptr, ptr %12, align 8
  %.not.i.i.i = icmp eq ptr %13, null
  br i1 %.not.i.i.i, label %_ZN12_GLOBAL__N_121DOCTEST_ANON_CLASS_51D2Ev.exit, label %14

14:                                               ; preds = %10
  %15 = getelementptr inbounds i8, ptr %2, i64 8
  %16 = load ptr, ptr %15, align 8
  invoke void %16(ptr noundef nonnull %13)
          to label %_ZN12_GLOBAL__N_121DOCTEST_ANON_CLASS_51D2Ev.exit unwind label %17

17:                                               ; preds = %14
  %18 = landingpad { ptr, i32 }
          catch ptr null
  %19 = extractvalue { ptr, i32 } %18, 0
  call void @__clang_call_terminate(ptr %19) #16
  unreachable

_ZN12_GLOBAL__N_121DOCTEST_ANON_CLASS_51D2Ev.exit: ; preds = %10, %14
  ret void

20:                                               ; preds = %.noexc, %0
  %21 = landingpad { ptr, i32 }
          cleanup
  call fastcc void @_ZN12_GLOBAL__N_121DOCTEST_ANON_CLASS_51D2Ev(ptr noundef nonnull align 8 dereferenceable(56) %2) #15
  resume { ptr, i32 } %21
}